; Function Attrs: nounwind uwtable
define internal ptr @fire_event_py_resume(ptr readnone captures(none) %0, ptr noundef %1) #0 {
  %3 = alloca ptr, align 8
  %4 = alloca i32, align 4
  call void @llvm.lifetime.start.p0(i64 8, ptr nonnull %3) #4
  call void @llvm.lifetime.start.p0(i64 4, ptr nonnull %4) #4
  %5 = call i32 (ptr, ptr, ...) @PyArg_ParseTuple(ptr noundef %1, ptr noundef nonnull @.str.28, ptr noundef nonnull %3, ptr noundef nonnull %4) #4
  %.not = icmp eq i32 %5, 0
  br i1 %.not, label %40, label %6

6:                                                ; preds = %2
  %7 = load ptr, ptr %3, align 8, !tbaa !32
  %8 = load i32, ptr %4, align 4, !tbaa !29
  %9 = getelementptr i8, ptr %7, i64 8
  %.val14.i = load ptr, ptr %9, align 8, !tbaa !14
  %.not.i = icmp eq ptr %.val14.i, @PyCodeLike_Type
  br i1 %.not.i, label %14, label %setup_fire.exit.thread

setup_fire.exit.thread:                           ; preds = %6
  %10 = load ptr, ptr @PyExc_TypeError, align 8, !tbaa !32
  %11 = getelementptr inbounds nuw i8, ptr %.val14.i, i64 24
  %12 = load ptr, ptr %11, align 8, !tbaa !33
  %13 = call ptr (ptr, ptr, ...) @PyErr_Format(ptr noundef %10, ptr noundef nonnull @.str.32, ptr noundef %12) #4
  br label %40

14:                                               ; preds = %6
  %15 = icmp sgt i32 %8, -1
  br i1 %15, label %16, label %20

16:                                               ; preds = %14
  %17 = getelementptr inbounds nuw i8, ptr %7, i64 32
  %18 = load i32, ptr %17, align 8, !tbaa !24
  %19 = icmp slt i32 %8, %18
  br i1 %19, label %setup_fire.exit, label %20

20:                                               ; preds = %16, %14
  call void @__assert_fail(ptr noundef nonnull @.str.33, ptr noundef nonnull @.str.30, i32 noundef 120, ptr noundef nonnull @__PRETTY_FUNCTION__.setup_fire) #5
  unreachable

setup_fire.exit:                                  ; preds = %16
  %21 = getelementptr inbounds nuw i8, ptr %7, i64 16
  %22 = load ptr, ptr %21, align 8, !tbaa !6
  %23 = zext nneg i32 %8 to i64
  %24 = getelementptr %struct._PyMonitoringState, ptr %22, i64 %23
  %25 = icmp eq ptr %24, null
  br i1 %25, label %40, label %26

26:                                               ; preds = %setup_fire.exit
  %27 = load i8, ptr %24, align 1, !tbaa !27
  %.not.i13 = icmp eq i8 %27, 0
  br i1 %.not.i13, label %PyMonitoring_FirePyResumeEvent.exit.thread, label %PyMonitoring_FirePyResumeEvent.exit

PyMonitoring_FirePyResumeEvent.exit:              ; preds = %26
  %28 = call i32 @_PyMonitoring_FirePyResumeEvent(ptr noundef nonnull %24, ptr noundef nonnull %7, i32 noundef %8) #4
  %29 = icmp eq i32 %28, -1
  br i1 %29, label %teardown_fire.exit.thread, label %PyMonitoring_FirePyResumeEvent.exit.thread

PyMonitoring_FirePyResumeEvent.exit.thread:       ; preds = %26, %PyMonitoring_FirePyResumeEvent.exit
  %30 = call ptr @PyErr_Occurred() #4
  %.not5.i = icmp eq ptr %30, null
  br i1 %.not5.i, label %teardown_fire.exit, label %31

31:                                               ; preds = %PyMonitoring_FirePyResumeEvent.exit.thread
  call void @__assert_fail(ptr noundef nonnull @.str.31, ptr noundef nonnull @.str.30, i32 noundef 141, ptr noundef nonnull @__PRETTY_FUNCTION__.teardown_fire) #5
  unreachable

teardown_fire.exit:                               ; preds = %PyMonitoring_FirePyResumeEvent.exit.thread
  call void @PyErr_Clear() #4
  %32 = load i8, ptr %24, align 1, !tbaa !27
  %33 = call ptr @PyErr_Occurred() #4
  %.not11 = icmp eq ptr %33, null
  br i1 %.not11, label %37, label %36

teardown_fire.exit.thread:                        ; preds = %PyMonitoring_FirePyResumeEvent.exit
  %34 = call ptr @PyErr_Occurred() #4
  %.not12 = icmp eq ptr %34, null
  br i1 %.not12, label %35, label %40

35:                                               ; preds = %teardown_fire.exit.thread
  call void @__assert_fail(ptr noundef nonnull @.str.29, ptr noundef nonnull @.str.30, i32 noundef 178, ptr noundef nonnull @__PRETTY_FUNCTION__.fire_event_py_resume) #5
  unreachable

36:                                               ; preds = %teardown_fire.exit
  call void @__assert_fail(ptr noundef nonnull @.str.31, ptr noundef nonnull @.str.30, i32 noundef 178, ptr noundef nonnull @__PRETTY_FUNCTION__.fire_event_py_resume) #5
  unreachable

37:                                               ; preds = %teardown_fire.exit
  %38 = zext i8 %32 to i64
  %39 = call ptr @PyLong_FromLong(i64 noundef %38) #4
  br label %40

40:                                               ; preds = %setup_fire.exit.thread, %setup_fire.exit, %teardown_fire.exit.thread, %37, %2
  %.0 = phi ptr [ null, %2 ], [ null, %setup_fire.exit ], [ %39, %37 ], [ null, %teardown_fire.exit.thread ], [ null, %setup_fire.exit.thread ]
  call void @llvm.lifetime.end.p0(i64 4, ptr nonnull %4) #4
  call void @llvm.lifetime.end.p0(i64 8, ptr nonnull %3) #4
  ret ptr %.0
}